; Function Attrs: nounwind sspstrong uwtable
define dso_local noundef ptr @rb_parser_st_init_strcasetable_with_size(i64 noundef %0) local_unnamed_addr #0 {
  %2 = tail call noalias dereferenceable_or_null(56) ptr @malloc(i64 noundef 56) #24
  %3 = icmp eq ptr %2, null
  br i1 %3, label %rb_parser_st_init_table_with_size.exit, label %4

4:                                                ; preds = %1
  %5 = tail call ptr @rb_parser_st_init_existing_table_with_size(ptr noundef nonnull %2, ptr noundef nonnull @type_strcasehash, i64 noundef %0)
  %6 = icmp eq ptr %5, null
  br i1 %6, label %7, label %rb_parser_st_init_table_with_size.exit

7:                                                ; preds = %4
  tail call void @free(ptr noundef nonnull %2) #25
  br label %rb_parser_st_init_table_with_size.exit

rb_parser_st_init_table_with_size.exit:           ; preds = %1, %4, %7
  %.0.i = phi ptr [ null, %7 ], [ null, %1 ], [ %2, %4 ]
  ret ptr %.0.i
}